target datalayout = "e-m:e-p270:32:32-p271:32:32-p272:64:64-i64:64-i128:128-f80:128-n8:16:32:64-S128"
target triple = "x86_64-pc-linux-gnu"

@_ZN6icu_7712CurrencyUnitC1ERKS0_ = unnamed_addr alias void (ptr, ptr), ptr @_ZN6icu_7712CurrencyUnitC2ERKS0_

; Function Attrs: mustprogress uwtable
define noundef ptr @_ZNK6icu_7712CurrencyUnit5cloneEv(ptr noundef nonnull align 8 dereferenceable(28) %0) unnamed_addr #1 align 2 personality ptr @__gxx_personality_v0 {
  %2 = alloca ptr, align 8
  %3 = alloca i1, align 1
  %4 = alloca ptr, align 8
  %5 = alloca i32, align 4
  store ptr %0, ptr %2, align 8, !tbaa !23
  %6 = load ptr, ptr %2, align 8
  %7 = call noundef ptr @_ZN6icu_777UMemorynwEm(i64 noundef 32) #11
  %8 = icmp eq ptr %7, null
  store i1 false, ptr %3, align 1
  br i1 %8, label %11, label %9

9:                                                ; preds = %1
  store i1 true, ptr %3, align 1
  invoke void @_ZN6icu_7712CurrencyUnitC1ERKS0_(ptr noundef nonnull align 8 dereferenceable(28) %7, ptr noundef nonnull align 8 dereferenceable(28) %6)
          to label %10 unwind label %13

10:                                               ; preds = %9
  br label %11

11:                                               ; preds = %10, %1
  %12 = phi ptr [ %7, %10 ], [ null, %1 ]
  ret ptr %12

13:                                               ; preds = %9
  %14 = landingpad { ptr, i32 }
          cleanup
  %15 = extractvalue { ptr, i32 } %14, 0
  store ptr %15, ptr %4, align 8
  %16 = extractvalue { ptr, i32 } %14, 1
  store i32 %16, ptr %5, align 4
  %17 = load i1, ptr %3, align 1
  br i1 %17, label %18, label %19

18:                                               ; preds = %13
  call void @_ZN6icu_777UMemorydlEPv(ptr noundef %7) #11
  br label %19

19:                                               ; preds = %18, %13
  br label %20

20:                                               ; preds = %19
  %21 = load ptr, ptr %4, align 8
  %22 = load i32, ptr %5, align 4
  %23 = insertvalue { ptr, i32 } poison, ptr %21, 0
  %24 = insertvalue { ptr, i32 } %23, i32 %22, 1
  resume { ptr, i32 } %24
}